Certificate:
    Data:
        Version: 1 (0x0)
        Serial Number: 16251456829201472667 (0xe188c5e1db265c9b)
    Signature Algorithm: sha256WithRSAEncryption
        Issuer: CN=dbhost.yourdomain.com
        Validity
            Not Before: Mar  8 12:14:38 2020 GMT
            Not After : Mar  8 12:14:38 2021 GMT
        Subject: CN=dbhost.yourdomain.com
        Subject Public Key Info:
            Public Key Algorithm: rsaEncryption
                Public-Key: (2048 bit)
                Modulus:
                    00:cc:fa:2d:99:c5:ca:f0:03:81:19:85:9e:ab:b8:
                    8d:4f:b8:92:8d:14:59:aa:4f:72:51:3a:35:80:c8:
                    45:2d:99:ed:2b:74:38:f6:18:30:48:87:bb:cd:29:
                    2b:26:af:46:6e:68:99:db:9f:4c:f3:27:e4:6c:47:
                    f8:b5:ab:e1:78:fa:e6:29:9d:c5:c8:fd:85:76:a4:
                    e1:df:ec:9a:38:eb:03:5f:a9:e5:d6:aa:67:81:9e:
                    eb:52:5b:20:5b:7b:a0:b9:28:32:06:fa:26:f1:a2:
                    26:f0:4b:4f:c0:e5:ba:ce:f1:c1:7b:4b:b1:82:40:
                    b5:b2:1a:94:b8:ea:b5:57:d2:16:ff:a2:1c:64:13:
                    65:91:5a:c4:f7:24:7f:d9:b1:c8:18:60:ea:05:16:
                    97:4b:00:76:8c:80:e2:5c:38:63:0a:91:e9:dc:15:
                    b9:ce:7c:19:40:cd:d3:9f:11:4e:17:1c:ce:c7:d4:
                    4d:74:83:6d:ab:68:90:c7:56:1c:93:6e:63:a9:df:
                    5a:8d:3b:da:6f:42:ba:7e:a4:e5:bf:fc:1f:0c:24:
                    bd:4d:c3:cf:0d:22:36:26:b3:fb:63:a0:20:78:2f:
                    b0:24:3f:a8:37:a4:5a:31:0e:f1:95:e6:1e:bb:4a:
                    d1:36:98:c1:20:c8:b9:86:64:03:2c:6f:6c:df:85:
                    70:ff
                Exponent: 65537 (0x10001)
    Signature Algorithm: sha256WithRSAEncryption
         92:fb:93:2a:fc:8c:ff:90:01:52:b9:0b:06:77:1d:56:e7:5c:
         3c:d9:83:29:d6:95:8a:00:0d:c7:5d:2a:26:2a:c8:5c:da:1b:
         21:da:46:c1:8c:ee:28:8a:23:3e:f3:9e:f5:7f:82:d8:ca:51:
         5e:d5:a1:05:bc:05:a3:53:c9:15:35:ec:46:5d:7e:1b:1c:54:
         33:e8:aa:13:f5:ed:25:ed:8c:2d:40:76:07:11:ee:73:12:0f:
         0b:90:83:53:c4:91:5a:0b:38:b4:a4:c0:de:e8:2f:9c:45:2c:
         20:cc:fa:8a:ad:08:a8:9c:7e:2a:e5:83:19:22:7a:85:1b:c3:
         49:ed:4a:8f:c7:e1:cc:d6:61:06:dc:58:6f:ea:a2:46:f0:e4:
         cd:73:d5:9d:10:f9:c8:66:a9:41:f6:54:e5:76:1b:7f:46:f1:
         f2:ab:9c:83:4d:4f:04:34:60:eb:97:2a:a4:8c:af:90:6e:b2:
         78:fe:96:e1:28:8b:a0:1c:50:19:07:07:bd:b3:ff:29:4d:2f:
         8f:f9:7b:d0:5c:15:93:5a:21:cf:40:e4:37:84:e1:b6:04:2e:
         e2:32:9f:9e:c7:f8:65:14:c8:11:b6:9c:07:94:4b:86:74:98:
         59:1b:38:78:b4:31:c3:b5:eb:57:e9:1c:e2:76:44:86:b1:24:
         99:35:98:d6
-----BEGIN CERTIFICATE-----
MIICvDCCAaQCCQDhiMXh2yZcmzANBgkqhkiG9w0BAQsFADAgMR4wHAYDVQQDDBVk
Ymhvc3QueW91cmRvbWFpbi5jb20wHhcNMjAwMzA4MTIxNDM4WhcNMjEwMzA4MTIx
NDM4WjAgMR4wHAYDVQQDDBVkYmhvc3QueW91cmRvbWFpbi5jb20wggEiMA0GCSqG
SIb3DQEBAQUAA4IBDwAwggEKAoIBAQDM+i2ZxcrwA4EZhZ6ruI1PuJKNFFmqT3JR
OjWAyEUtme0rdDj2GDBIh7vNKSsmr0ZuaJnbn0zzJ+RsR/i1q+F4+uYpncXI/YV2
pOHf7Jo46wNfqeXWqmeBnutSWyBbe6C5KDIG+ibxoibwS0/A5brO8cF7S7GCQLWy
GpS46rVX0hb/ohxkE2WRWsT3JH/ZscgYYOoFFpdLAHaMgOJcOGMKkencFbnOfBlA
zdOfEU4XHM7H1E10g22raJDHVhyTbmOp31qNO9pvQrp+pOW//B8MJL1Nw88NIjYm
s/tjoCB4L7AkP6g3pFoxDvGV5h67StE2mMEgyLmGZAMsb2zfhXD/AgMBAAEwDQYJ
KoZIhvcNAQELBQADggEBAJL7kyr8jP+QAVK5CwZ3HVbnXDzZgynWlYoADcddKiYq
yFzaGyHaRsGM7iiKIz7znvV/gtjKUV7VoQW8BaNTyRU17EZdfhscVDPoqhP17SXt
jC1AdgcR7nMSDwuQg1PEkVoLOLSkwN7oL5xFLCDM+oqtCKicfirlgxkieoUbw0nt
So/H4czWYQbcWG/qokbw5M1z1Z0Q+chmqUH2VOV2G39G8fKrnINNTwQ0YOuXKqSM
r5Busnj+luEoi6AcUBkHB72z/ylNL4/5e9BcFZNaIc9A5DeE4bYELuIyn57H+GUU
yBG2nAeUS4Z0mFkbOHi0McO161fpHOJ2RIaxJJk1mNY=
-----END CERTIFICATE-----
